target datalayout = "e-m:e-p270:32:32-p271:32:32-p272:64:64-i64:64-i128:128-f80:128-n8:16:32:64-S128"
target triple = "x86_64-pc-linux-gnu"

%"struct.std::__1::to_chars_result" = type { ptr, i32 }

@.str = private unnamed_addr constant [4 x i8] c"inf\00", align 1
@.str.1 = private unnamed_addr constant [9 x i8] c"nan(ind)\00", align 1
@.str.2 = private unnamed_addr constant [4 x i8] c"nan\00", align 1
@.str.3 = private unnamed_addr constant [10 x i8] c"nan(snan)\00", align 1

; Function Attrs: mustprogress nounwind uwtable
define linkonce_odr hidden { ptr, i32 } @_ZNSt3__122_Floating_to_chars_ryuB8ne210000IdEENS_15to_chars_resultEPcS2_T_NS_12chars_formatE(ptr noundef %0, ptr noundef %1, double noundef %2, i32 noundef %3) #4 comdat personality ptr @__gxx_personality_v0 {
  %5 = alloca %"struct.std::__1::to_chars_result", align 8
  %6 = alloca ptr, align 8
  %7 = alloca ptr, align 8
  %8 = alloca double, align 8
  %9 = alloca i32, align 4
  store ptr %0, ptr %6, align 8, !tbaa !4
  store ptr %1, ptr %7, align 8, !tbaa !4
  store double %2, ptr %8, align 8, !tbaa !50
  store i32 %3, ptr %9, align 4, !tbaa !33
  %10 = load ptr, ptr %6, align 8, !tbaa !4
  %11 = load ptr, ptr %7, align 8, !tbaa !4
  %12 = load double, ptr %8, align 8, !tbaa !50
  %13 = load i32, ptr %9, align 4, !tbaa !33
  %14 = invoke { ptr, i32 } @_ZNSt3__116__d2s_buffered_nB8ne210000EPcS0_dNS_12chars_formatE(ptr noundef %10, ptr noundef %11, double noundef %12, i32 noundef %13)
          to label %15 unwind label %21

15:                                               ; preds = %4
  %16 = getelementptr inbounds nuw { ptr, i32 }, ptr %5, i32 0, i32 0
  %17 = extractvalue { ptr, i32 } %14, 0
  store ptr %17, ptr %16, align 8
  %18 = getelementptr inbounds nuw { ptr, i32 }, ptr %5, i32 0, i32 1
  %19 = extractvalue { ptr, i32 } %14, 1
  store i32 %19, ptr %18, align 8
  %20 = load { ptr, i32 }, ptr %5, align 8
  ret { ptr, i32 } %20

21:                                               ; preds = %4
  %22 = landingpad { ptr, i32 }
          catch ptr null
  %23 = extractvalue { ptr, i32 } %22, 0
  call void @__clang_call_terminate(ptr %23) #17
  unreachable
}

; Function Attrs: mustprogress nounwind uwtable
define linkonce_odr hidden noundef double @_ZNSt3__18bit_castB8ne210000IdmQaaaaeqstT_stT0_23is_trivially_copyable_vIS1_E23is_trivially_copyable_vIS2_EEES1_RKS2_(ptr noundef nonnull align 8 dereferenceable(8) %0) #4 comdat {
  %2 = alloca ptr, align 8
  store ptr %0, ptr %2, align 8, !tbaa !78
  %3 = load ptr, ptr %2, align 8, !tbaa !78
  %4 = load double, ptr %3, align 8, !tbaa !11
  ret double %4
}

; Function Attrs: mustprogress nounwind uwtable
define linkonce_odr hidden noundef i64 @_ZNSt3__18bit_castB8ne210000ImdQaaaaeqstT_stT0_23is_trivially_copyable_vIS1_E23is_trivially_copyable_vIS2_EEES1_RKS2_(ptr noundef nonnull align 8 dereferenceable(8) %0) #4 comdat {
  %2 = alloca ptr, align 8
  store ptr %0, ptr %2, align 8, !tbaa !76
  %3 = load ptr, ptr %2, align 8, !tbaa !76
  %4 = load i64, ptr %3, align 8, !tbaa !11
  ret i64 %4
}

; Function Attrs: mustprogress nounwind uwtable
define linkonce_odr hidden { ptr, i32 } @_ZNSt3__118_Floating_to_charsB8ne210000ILNS_27_Floating_to_chars_overloadE0EdEENS_15to_chars_resultEPcS3_T0_NS_12chars_formatEi(ptr noundef %0, ptr noundef %1, double noundef %2, i32 noundef %3, i32 noundef %4) #4 comdat {
  %6 = alloca %"struct.std::__1::to_chars_result", align 8
  %7 = alloca ptr, align 8
  %8 = alloca ptr, align 8
  %9 = alloca double, align 8
  %10 = alloca i32, align 4
  %11 = alloca i32, align 4
  %12 = alloca i64, align 8
  %13 = alloca i8, align 1
  %14 = alloca i32, align 4
  %15 = alloca ptr, align 8
  %16 = alloca i64, align 8
  %17 = alloca i64, align 8
  store ptr %0, ptr %7, align 8, !tbaa !4
  store ptr %1, ptr %8, align 8, !tbaa !4
  store double %2, ptr %9, align 8, !tbaa !50
  store i32 %3, ptr %10, align 4, !tbaa !33
  store i32 %4, ptr %11, align 4, !tbaa !21
  call void @llvm.lifetime.start.p0(i64 8, ptr %12) #15
  %18 = call noundef i64 @_ZNSt3__18bit_castB8ne210000ImdQaaaaeqstT_stT0_23is_trivially_copyable_vIS1_E23is_trivially_copyable_vIS2_EEES1_RKS2_(ptr noundef nonnull align 8 dereferenceable(8) %9) #15
  store i64 %18, ptr %12, align 8, !tbaa !9
  call void @llvm.lifetime.start.p0(i64 1, ptr %13) #15
  %19 = load i64, ptr %12, align 8, !tbaa !9
  %20 = and i64 %19, -9223372036854775808
  %21 = icmp ne i64 %20, 0
  %22 = zext i1 %21 to i8
  store i8 %22, ptr %13, align 1, !tbaa !28
  %23 = load i8, ptr %13, align 1, !tbaa !28, !range !29, !noundef !30
  %24 = trunc i8 %23 to i1
  br i1 %24, label %25, label %39

25:                                               ; preds = %5
  %26 = load ptr, ptr %7, align 8, !tbaa !4
  %27 = load ptr, ptr %8, align 8, !tbaa !4
  %28 = icmp eq ptr %26, %27
  br i1 %28, label %29, label %33

29:                                               ; preds = %25
  %30 = getelementptr inbounds nuw %"struct.std::__1::to_chars_result", ptr %6, i32 0, i32 0
  %31 = load ptr, ptr %8, align 8, !tbaa !4
  store ptr %31, ptr %30, align 8, !tbaa !47
  %32 = getelementptr inbounds nuw %"struct.std::__1::to_chars_result", ptr %6, i32 0, i32 1
  store i32 75, ptr %32, align 8, !tbaa !49
  store i32 1, ptr %14, align 4
  br label %95

33:                                               ; preds = %25
  %34 = load ptr, ptr %7, align 8, !tbaa !4
  %35 = getelementptr inbounds nuw i8, ptr %34, i32 1
  store ptr %35, ptr %7, align 8, !tbaa !4
  store i8 45, ptr %34, align 1, !tbaa !11
  %36 = load i64, ptr %12, align 8, !tbaa !9
  %37 = and i64 %36, 9223372036854775807
  store i64 %37, ptr %12, align 8, !tbaa !9
  %38 = call noundef double @_ZNSt3__18bit_castB8ne210000IdmQaaaaeqstT_stT0_23is_trivially_copyable_vIS1_E23is_trivially_copyable_vIS2_EEES1_RKS2_(ptr noundef nonnull align 8 dereferenceable(8) %12) #15
  store double %38, ptr %9, align 8, !tbaa !50
  br label %39

39:                                               ; preds = %33, %5
  %40 = load i64, ptr %12, align 8, !tbaa !9
  %41 = and i64 %40, 9218868437227405312
  %42 = icmp eq i64 %41, 9218868437227405312
  br i1 %42, label %43, label %86

43:                                               ; preds = %39
  call void @llvm.lifetime.start.p0(i64 8, ptr %15) #15
  call void @llvm.lifetime.start.p0(i64 8, ptr %16) #15
  call void @llvm.lifetime.start.p0(i64 8, ptr %17) #15
  %44 = load i64, ptr %12, align 8, !tbaa !9
  %45 = and i64 %44, 4503599627370495
  store i64 %45, ptr %17, align 8, !tbaa !9
  %46 = load i64, ptr %17, align 8, !tbaa !9
  %47 = icmp eq i64 %46, 0
  br i1 %47, label %48, label %49

48:                                               ; preds = %43
  store ptr @.str, ptr %15, align 8, !tbaa !4
  store i64 3, ptr %16, align 8, !tbaa !9
  br label %64

49:                                               ; preds = %43
  %50 = load i8, ptr %13, align 1, !tbaa !28, !range !29, !noundef !30
  %51 = trunc i8 %50 to i1
  br i1 %51, label %52, label %56

52:                                               ; preds = %49
  %53 = load i64, ptr %17, align 8, !tbaa !9
  %54 = icmp eq i64 %53, 2251799813685248
  br i1 %54, label %55, label %56

55:                                               ; preds = %52
  store ptr @.str.1, ptr %15, align 8, !tbaa !4
  store i64 8, ptr %16, align 8, !tbaa !9
  br label %63

56:                                               ; preds = %52, %49
  %57 = load i64, ptr %17, align 8, !tbaa !9
  %58 = and i64 %57, 2251799813685248
  %59 = icmp ne i64 %58, 0
  br i1 %59, label %60, label %61

60:                                               ; preds = %56
  store ptr @.str.2, ptr %15, align 8, !tbaa !4
  store i64 3, ptr %16, align 8, !tbaa !9
  br label %62

61:                                               ; preds = %56
  store ptr @.str.3, ptr %15, align 8, !tbaa !4
  store i64 9, ptr %16, align 8, !tbaa !9
  br label %62

62:                                               ; preds = %61, %60
  br label %63

63:                                               ; preds = %62, %55
  br label %64

64:                                               ; preds = %63, %48
  %65 = load ptr, ptr %8, align 8, !tbaa !4
  %66 = load ptr, ptr %7, align 8, !tbaa !4
  %67 = ptrtoint ptr %65 to i64
  %68 = ptrtoint ptr %66 to i64
  %69 = sub i64 %67, %68
  %70 = load i64, ptr %16, align 8, !tbaa !9
  %71 = icmp slt i64 %69, %70
  br i1 %71, label %72, label %76

72:                                               ; preds = %64
  %73 = getelementptr inbounds nuw %"struct.std::__1::to_chars_result", ptr %6, i32 0, i32 0
  %74 = load ptr, ptr %8, align 8, !tbaa !4
  store ptr %74, ptr %73, align 8, !tbaa !47
  %75 = getelementptr inbounds nuw %"struct.std::__1::to_chars_result", ptr %6, i32 0, i32 1
  store i32 75, ptr %75, align 8, !tbaa !49
  store i32 1, ptr %14, align 4
  br label %85

76:                                               ; preds = %64
  %77 = load ptr, ptr %7, align 8, !tbaa !4
  %78 = load ptr, ptr %15, align 8, !tbaa !4
  %79 = load i64, ptr %16, align 8, !tbaa !9
  call void @llvm.memcpy.p0.p0.i64(ptr align 1 %77, ptr align 1 %78, i64 %79, i1 false)
  %80 = getelementptr inbounds nuw %"struct.std::__1::to_chars_result", ptr %6, i32 0, i32 0
  %81 = load ptr, ptr %7, align 8, !tbaa !4
  %82 = load i64, ptr %16, align 8, !tbaa !9
  %83 = getelementptr inbounds nuw i8, ptr %81, i64 %82
  store ptr %83, ptr %80, align 8, !tbaa !47
  %84 = getelementptr inbounds nuw %"struct.std::__1::to_chars_result", ptr %6, i32 0, i32 1
  store i32 0, ptr %84, align 8, !tbaa !49
  store i32 1, ptr %14, align 4
  br label %85

85:                                               ; preds = %76, %72
  call void @llvm.lifetime.end.p0(i64 8, ptr %17) #15
  call void @llvm.lifetime.end.p0(i64 8, ptr %16) #15
  call void @llvm.lifetime.end.p0(i64 8, ptr %15) #15
  br label %95

86:                                               ; preds = %39
  %87 = load ptr, ptr %7, align 8, !tbaa !4
  %88 = load ptr, ptr %8, align 8, !tbaa !4
  %89 = load double, ptr %9, align 8, !tbaa !50
  %90 = call { ptr, i32 } @_ZNSt3__122_Floating_to_chars_ryuB8ne210000IdEENS_15to_chars_resultEPcS2_T_NS_12chars_formatE(ptr noundef %87, ptr noundef %88, double noundef %89, i32 noundef 0) #15
  %91 = getelementptr inbounds nuw { ptr, i32 }, ptr %6, i32 0, i32 0
  %92 = extractvalue { ptr, i32 } %90, 0
  store ptr %92, ptr %91, align 8
  %93 = getelementptr inbounds nuw { ptr, i32 }, ptr %6, i32 0, i32 1
  %94 = extractvalue { ptr, i32 } %90, 1
  store i32 %94, ptr %93, align 8
  store i32 1, ptr %14, align 4
  br label %95

95:                                               ; preds = %86, %85, %29
  call void @llvm.lifetime.end.p0(i64 1, ptr %13) #15
  call void @llvm.lifetime.end.p0(i64 8, ptr %12) #15
  %96 = load { ptr, i32 }, ptr %6, align 8
  ret { ptr, i32 } %96
}

; Function Attrs: mustprogress nounwind uwtable
define dso_local { ptr, i32 } @_ZNSt3__18to_charsEPcS0_e(ptr noundef %0, ptr noundef %1, x86_fp80 noundef %2) #4 {
  %4 = alloca %"struct.std::__1::to_chars_result", align 8
  %5 = alloca ptr, align 8
  %6 = alloca ptr, align 8
  %7 = alloca x86_fp80, align 16
  store ptr %0, ptr %5, align 8, !tbaa !4
  store ptr %1, ptr %6, align 8, !tbaa !4
  store x86_fp80 %2, ptr %7, align 16, !tbaa !51
  %8 = load ptr, ptr %5, align 8, !tbaa !4
  %9 = load ptr, ptr %6, align 8, !tbaa !4
  %10 = load x86_fp80, ptr %7, align 16, !tbaa !51
  %11 = fptrunc x86_fp80 %10 to double
  %12 = call { ptr, i32 } @_ZNSt3__118_Floating_to_charsB8ne210000ILNS_27_Floating_to_chars_overloadE0EdEENS_15to_chars_resultEPcS3_T0_NS_12chars_formatEi(ptr noundef %8, ptr noundef %9, double noundef %11, i32 noundef 0, i32 noundef 0) #15
  %13 = getelementptr inbounds nuw { ptr, i32 }, ptr %4, i32 0, i32 0
  %14 = extractvalue { ptr, i32 } %12, 0
  store ptr %14, ptr %13, align 8
  %15 = getelementptr inbounds nuw { ptr, i32 }, ptr %4, i32 0, i32 1
  %16 = extractvalue { ptr, i32 } %12, 1
  store i32 %16, ptr %15, align 8
  %17 = load { ptr, i32 }, ptr %4, align 8
  ret { ptr, i32 } %17
}