; Function Attrs: mustprogress nounwind uwtable
define dso_local { ptr, i32 } @_ZNSt3__18to_charsEPcS0_e(ptr noundef %0, ptr noundef %1, x86_fp80 noundef %2) local_unnamed_addr #4 personality ptr @__gxx_personality_v0 {
  %4 = fptrunc x86_fp80 %2 to double
  %5 = bitcast double %4 to i64
  %6 = icmp slt i64 %5, 0
  br i1 %6, label %7, label %16

7:                                                ; preds = %3
  %8 = icmp eq ptr %0, %1
  br i1 %8, label %9, label %12

9:                                                ; preds = %7
  %10 = insertvalue { ptr, i32 } poison, ptr %1, 0
  %11 = insertvalue { ptr, i32 } %10, i32 75, 1
  br label %_ZNSt3__118_Floating_to_charsB8ne210000ILNS_27_Floating_to_chars_overloadE0EdEENS_15to_chars_resultEPcS3_T0_NS_12chars_formatEi.exit

12:                                               ; preds = %7
  %13 = getelementptr inbounds nuw i8, ptr %0, i64 1
  store i8 45, ptr %0, align 1, !tbaa !4
  %14 = tail call double @llvm.fabs.f64(double %4)
  %15 = bitcast double %14 to i64
  br label %16

16:                                               ; preds = %12, %3
  %.029.i = phi double [ %14, %12 ], [ %4, %3 ]
  %.028.i = phi i64 [ %15, %12 ], [ %5, %3 ]
  %.021.i = phi ptr [ %13, %12 ], [ %0, %3 ]
  %17 = and i64 %.028.i, 9218868437227405312
  %18 = icmp eq i64 %17, 9218868437227405312
  br i1 %18, label %19, label %36

19:                                               ; preds = %16
  %20 = and i64 %.028.i, 4503599627370495
  %21 = icmp eq i64 %20, 0
  br i1 %21, label %26, label %22

22:                                               ; preds = %19
  %23 = icmp eq i64 %20, 2251799813685248
  %or.cond.i = and i1 %6, %23
  br i1 %or.cond.i, label %26, label %24

24:                                               ; preds = %22
  %25 = and i64 %.028.i, 2251799813685248
  %.not.i = icmp eq i64 %25, 0
  %.str.3..str.2.i = select i1 %.not.i, ptr @.str.3, ptr @.str.2
  %..i = select i1 %.not.i, i64 9, i64 3
  br label %26

26:                                               ; preds = %24, %22, %19
  %.020.i = phi ptr [ @.str, %19 ], [ @.str.1, %22 ], [ %.str.3..str.2.i, %24 ]
  %.0.i = phi i64 [ 3, %19 ], [ 8, %22 ], [ %..i, %24 ]
  %27 = ptrtoint ptr %1 to i64
  %28 = ptrtoint ptr %.021.i to i64
  %29 = sub i64 %27, %28
  %30 = icmp slt i64 %29, %.0.i
  br i1 %30, label %33, label %31

31:                                               ; preds = %26
  tail call void @llvm.memcpy.p0.p0.i64(ptr noundef nonnull align 1 dereferenceable(1) %.021.i, ptr noundef nonnull align 1 dereferenceable(1) %.020.i, i64 %.0.i, i1 false)
  %32 = getelementptr inbounds nuw i8, ptr %.021.i, i64 %.0.i
  br label %33

33:                                               ; preds = %31, %26
  %.sroa.0.1.i = phi ptr [ %32, %31 ], [ %1, %26 ]
  %.sroa.5.1.i = phi i32 [ 0, %31 ], [ 75, %26 ]
  %34 = insertvalue { ptr, i32 } poison, ptr %.sroa.0.1.i, 0
  %35 = insertvalue { ptr, i32 } %34, i32 %.sroa.5.1.i, 1
  br label %_ZNSt3__118_Floating_to_charsB8ne210000ILNS_27_Floating_to_chars_overloadE0EdEENS_15to_chars_resultEPcS3_T0_NS_12chars_formatEi.exit

36:                                               ; preds = %16
  %37 = invoke { ptr, i32 } @_ZNSt3__116__d2s_buffered_nB8ne210000EPcS0_dNS_12chars_formatE(ptr noundef %.021.i, ptr noundef %1, double noundef %.029.i, i32 noundef 0)
          to label %_ZNSt3__118_Floating_to_charsB8ne210000ILNS_27_Floating_to_chars_overloadE0EdEENS_15to_chars_resultEPcS3_T0_NS_12chars_formatEi.exit unwind label %38

38:                                               ; preds = %36
  %39 = landingpad { ptr, i32 }
          catch ptr null
  %40 = extractvalue { ptr, i32 } %39, 0
  tail call void @__clang_call_terminate(ptr %40) #20
  unreachable

_ZNSt3__118_Floating_to_charsB8ne210000ILNS_27_Floating_to_chars_overloadE0EdEENS_15to_chars_resultEPcS3_T0_NS_12chars_formatEi.exit: ; preds = %9, %33, %36
  %.fca.1.insert.merged.i = phi { ptr, i32 } [ %11, %9 ], [ %35, %33 ], [ %37, %36 ]
  ret { ptr, i32 } %.fca.1.insert.merged.i
}